; Function Attrs: null_pointer_is_valid sspstrong uwtable
define internal i32 @dissect_header_x5t(ptr noundef %0, ptr noundef %1, ptr noundef %2, ptr readnone captures(none) %3) #0 {
  %5 = alloca i32, align 4
  call void @llvm.lifetime.start.p0(i64 4, ptr nonnull %5) #8
  store i32 0, ptr %5, align 4
  %6 = getelementptr inbounds nuw i8, ptr %1, i64 408
  %7 = load ptr, ptr %6, align 8
  %8 = call ptr @wscbor_chunk_read(ptr noundef %7, ptr noundef %0, ptr noundef nonnull %5)
  %9 = call zeroext i1 @wscbor_require_array_size(ptr noundef %8, i64 noundef 2, i64 noundef 2)
  %10 = load i32, ptr @hf_hdr_x5t, align 4
  %11 = call ptr @proto_tree_add_cbor_container(ptr noundef %2, i32 noundef %10, ptr noundef %1, ptr noundef %0, ptr noundef %8)
  %12 = load ptr, ptr %6, align 8
  %13 = call zeroext i1 @wscbor_skip_if_errors(ptr noundef %12, ptr noundef %0, ptr noundef nonnull %5, ptr noundef %8)
  br i1 %13, label %35, label %14

14:                                               ; preds = %4
  %15 = load i32, ptr @ett_hdr_x5t_list, align 4
  %16 = call ptr @proto_item_add_subtree(ptr noundef %11, i32 noundef %15)
  %17 = load ptr, ptr %6, align 8
  %18 = call ptr @wscbor_chunk_read(ptr noundef %17, ptr noundef %0, ptr noundef nonnull %5)
  %19 = getelementptr inbounds nuw i8, ptr %18, i64 40
  %20 = load i32, ptr %19, align 8
  switch i32 %20, label %dissect_value_alg.exit [
    i32 0, label %21
    i32 1, label %21
    i32 3, label %26
  ]

21:                                               ; preds = %14, %14
  %22 = load ptr, ptr %6, align 8
  %23 = call ptr @wscbor_require_int64(ptr noundef %22, ptr noundef %18)
  %24 = load i32, ptr @hf_hdr_alg_int, align 4
  %25 = call ptr @proto_tree_add_cbor_int64(ptr noundef %16, i32 noundef %24, ptr noundef %1, ptr noundef %0, ptr noundef %18, ptr noundef %23)
  br label %dissect_value_alg.exit

26:                                               ; preds = %14
  %27 = load i32, ptr @hf_hdr_alg_tstr, align 4
  %28 = call ptr @proto_tree_add_cbor_tstr(ptr noundef %16, i32 noundef %27, ptr noundef %1, ptr noundef %0, ptr noundef %18)
  br label %dissect_value_alg.exit

dissect_value_alg.exit:                           ; preds = %14, %21, %26
  %29 = load ptr, ptr %6, align 8
  %30 = call ptr @wscbor_chunk_read(ptr noundef %29, ptr noundef %0, ptr noundef nonnull %5)
  %31 = load ptr, ptr %6, align 8
  %32 = call ptr @wscbor_require_bstr(ptr noundef %31, ptr noundef %30)
  %33 = load i32, ptr @hf_hdr_x5t_hash, align 4
  %34 = call ptr @proto_tree_add_cbor_bstr(ptr noundef %16, i32 noundef %33, ptr noundef %1, ptr noundef %0, ptr noundef %30)
  br label %35

35:                                               ; preds = %dissect_value_alg.exit, %4
  %36 = load i32, ptr %5, align 4
  call void @llvm.lifetime.end.p0(i64 4, ptr nonnull %5) #8
  ret i32 %36
}